target datalayout = "e-m:e-p270:32:32-p271:32:32-p272:64:64-i64:64-i128:128-f80:128-n8:16:32:64-S128"
target triple = "x86_64-pc-linux-gnu"

%struct.AVTextFormatter = type { ptr, i32, ptr, ptr, ptr, ptr, ptr, ptr, ptr, i32 }
%struct.AVTextFormatContext = type { ptr, ptr, ptr, ptr, ptr, ptr, i32, i32, [12 x i32], [12 x [100 x i32]], [12 x ptr], [12 x %struct.AVBPrint], i32, i32, i32, i32, i32, ptr, i32, ptr, i32 }
%struct.AVBPrint = type { ptr, i32, i32, i32, [1 x i8], [1000 x i8] }
%struct.AVTextFormatSection = type { i32, ptr, i32, [12 x i32], ptr, ptr, ptr, ptr, i32, ptr, ptr, ptr, ptr }
%struct.AVRational = type { i32, i32 }

@.str = private unnamed_addr constant [30 x i8] c"Assertion %s failed at %s:%d\0A\00", align 1
@.str.2 = private unnamed_addr constant [34 x i8] c"fftools/textformat/avtextformat.c\00", align 1
@.str.17 = private unnamed_addr constant [51 x i8] c"key && val && tctx->level >= 0 && tctx->level < 12\00", align 1
@.str.18 = private unnamed_addr constant [58 x i8] c"Invalid key=value string combination %s=%s in section %s\0A\00", align 1
@.str.19 = private unnamed_addr constant [7 x i8] c"%d%c%d\00", align 1
@.str.39 = private unnamed_addr constant [3 x i8] c"0X\00", align 1
@.str.40 = private unnamed_addr constant [5 x i8] c"%02X\00", align 1
@.str.55 = private unnamed_addr constant [50 x i8] c"Invalid UTF-8 sequence '%s' found in string '%s'\0A\00", align 1
@.str.56 = private unnamed_addr constant [45 x i8] c"Invalid UTF-8 sequence found in string '%s'\0A\00", align 1
@.str.57 = private unnamed_addr constant [3 x i8] c"%s\00", align 1
@.str.58 = private unnamed_addr constant [71 x i8] c"%d invalid UTF-8 sequence(s) found in string '%s', replaced with '%s'\0A\00", align 1

; Function Attrs: nounwind uwtable
define internal void @bprint_bytes(ptr noundef %0, ptr noundef %1, i64 noundef %2) #0 {
  %4 = alloca ptr, align 8
  %5 = alloca ptr, align 8
  %6 = alloca i64, align 8
  %7 = alloca i32, align 4
  store ptr %0, ptr %4, align 8, !tbaa !68
  store ptr %1, ptr %5, align 8, !tbaa !30
  store i64 %2, ptr %6, align 8, !tbaa !70
  %8 = load ptr, ptr %4, align 8, !tbaa !68
  call void (ptr, ptr, ...) @av_bprintf(ptr noundef %8, ptr noundef @.str.39)
  call void @llvm.lifetime.start.p0(i64 4, ptr %7) #10
  store i32 0, ptr %7, align 4, !tbaa !12
  br label %9

9:                                                ; preds = %23, %3
  %10 = load i32, ptr %7, align 4, !tbaa !12
  %11 = zext i32 %10 to i64
  %12 = load i64, ptr %6, align 8, !tbaa !70
  %13 = icmp ult i64 %11, %12
  br i1 %13, label %15, label %14

14:                                               ; preds = %9
  call void @llvm.lifetime.end.p0(i64 4, ptr %7) #10
  br label %26

15:                                               ; preds = %9
  %16 = load ptr, ptr %4, align 8, !tbaa !68
  %17 = load ptr, ptr %5, align 8, !tbaa !30
  %18 = load i32, ptr %7, align 4, !tbaa !12
  %19 = zext i32 %18 to i64
  %20 = getelementptr inbounds nuw i8, ptr %17, i64 %19
  %21 = load i8, ptr %20, align 1, !tbaa !62
  %22 = zext i8 %21 to i32
  call void (ptr, ptr, ...) @av_bprintf(ptr noundef %16, ptr noundef @.str.40, i32 noundef %22)
  br label %23

23:                                               ; preds = %15
  %24 = load i32, ptr %7, align 4, !tbaa !12
  %25 = add i32 %24, 1
  store i32 %25, ptr %7, align 4, !tbaa !12
  br label %9, !llvm.loop !72

26:                                               ; preds = %14
  ret void
}

; Function Attrs: inlinehint nounwind uwtable
define internal i32 @validate_string(ptr noundef %0, ptr noundef %1, ptr noundef %2) #6 {
  %4 = alloca i32, align 4
  %5 = alloca ptr, align 8
  %6 = alloca ptr, align 8
  %7 = alloca ptr, align 8
  %8 = alloca ptr, align 8
  %9 = alloca ptr, align 8
  %10 = alloca ptr, align 8
  %11 = alloca %struct.AVBPrint, align 8
  %12 = alloca %struct.AVBPrint, align 8
  %13 = alloca i32, align 4
  %14 = alloca i32, align 4
  %15 = alloca i32, align 4
  %16 = alloca i32, align 4
  %17 = alloca ptr, align 8
  %18 = alloca i32, align 4
  store ptr %0, ptr %5, align 8, !tbaa !10
  store ptr %1, ptr %6, align 8, !tbaa !92
  store ptr %2, ptr %7, align 8, !tbaa !30
  call void @llvm.lifetime.start.p0(i64 8, ptr %8) #10
  call void @llvm.lifetime.start.p0(i64 8, ptr %9) #10
  call void @llvm.lifetime.start.p0(i64 8, ptr %10) #10
  %19 = load ptr, ptr %7, align 8, !tbaa !30
  store ptr %19, ptr %10, align 8, !tbaa !30
  call void @llvm.lifetime.start.p0(i64 1024, ptr %11) #10
  call void @llvm.lifetime.start.p0(i64 1024, ptr %12) #10
  call void @llvm.lifetime.start.p0(i64 4, ptr %13) #10
  store i32 0, ptr %13, align 4, !tbaa !12
  call void @llvm.lifetime.start.p0(i64 4, ptr %14) #10
  store i32 0, ptr %14, align 4, !tbaa !12
  %20 = load ptr, ptr %6, align 8, !tbaa !92
  store ptr null, ptr %20, align 8, !tbaa !30
  call void @av_bprint_init(ptr noundef %11, i32 noundef 0, i32 noundef -1)
  call void @av_bprint_init(ptr noundef %12, i32 noundef 0, i32 noundef -1)
  %21 = load ptr, ptr %10, align 8, !tbaa !30
  %22 = load ptr, ptr %7, align 8, !tbaa !30
  %23 = call i64 @strlen(ptr noundef %22) #12
  %24 = getelementptr inbounds nuw i8, ptr %21, i64 %23
  store ptr %24, ptr %9, align 8, !tbaa !30
  %25 = load ptr, ptr %10, align 8, !tbaa !30
  store ptr %25, ptr %8, align 8, !tbaa !30
  br label %26

26:                                               ; preds = %85, %3
  %27 = load ptr, ptr %8, align 8, !tbaa !30
  %28 = load i8, ptr %27, align 1, !tbaa !62
  %29 = icmp ne i8 %28, 0
  br i1 %29, label %30, label %86

30:                                               ; preds = %26
  call void @llvm.lifetime.start.p0(i64 4, ptr %15) #10
  call void @llvm.lifetime.start.p0(i64 4, ptr %16) #10
  store i32 0, ptr %16, align 4, !tbaa !12
  call void @llvm.lifetime.start.p0(i64 8, ptr %17) #10
  %31 = load ptr, ptr %8, align 8, !tbaa !30
  store ptr %31, ptr %17, align 8, !tbaa !30
  %32 = load ptr, ptr %9, align 8, !tbaa !30
  %33 = load ptr, ptr %5, align 8, !tbaa !10
  %34 = getelementptr inbounds nuw %struct.AVTextFormatContext, ptr %33, i32 0, i32 20
  %35 = load i32, ptr %34, align 8, !tbaa !63
  %36 = call i32 @av_utf8_decode(ptr noundef %15, ptr noundef %8, ptr noundef %32, i32 noundef %35)
  %37 = icmp slt i32 %36, 0
  br i1 %37, label %38, label %49

38:                                               ; preds = %30
  call void @av_bprint_clear(ptr noundef %12)
  %39 = load ptr, ptr %17, align 8, !tbaa !30
  %40 = load ptr, ptr %8, align 8, !tbaa !30
  %41 = load ptr, ptr %17, align 8, !tbaa !30
  %42 = ptrtoint ptr %40 to i64
  %43 = ptrtoint ptr %41 to i64
  %44 = sub i64 %42, %43
  call void @bprint_bytes(ptr noundef %12, ptr noundef %39, i64 noundef %44)
  %45 = load ptr, ptr %5, align 8, !tbaa !10
  %46 = getelementptr inbounds nuw %struct.AVBPrint, ptr %12, i32 0, i32 0
  %47 = load ptr, ptr %46, align 8, !tbaa !64
  %48 = load ptr, ptr %7, align 8, !tbaa !30
  call void (ptr, i32, ptr, ...) @av_log(ptr noundef %45, i32 noundef 48, ptr noundef @.str.55, ptr noundef %47, ptr noundef %48)
  store i32 1, ptr %16, align 4, !tbaa !12
  br label %49

49:                                               ; preds = %38, %30
  %50 = load i32, ptr %16, align 4, !tbaa !12
  %51 = icmp ne i32 %50, 0
  br i1 %51, label %52, label %66

52:                                               ; preds = %49
  %53 = load i32, ptr %13, align 4, !tbaa !12
  %54 = add nsw i32 %53, 1
  store i32 %54, ptr %13, align 4, !tbaa !12
  %55 = load ptr, ptr %5, align 8, !tbaa !10
  %56 = getelementptr inbounds nuw %struct.AVTextFormatContext, ptr %55, i32 0, i32 18
  %57 = load i32, ptr %56, align 8, !tbaa !94
  switch i32 %57, label %65 [
    i32 0, label %58
    i32 1, label %61
  ]

58:                                               ; preds = %52
  %59 = load ptr, ptr %5, align 8, !tbaa !10
  %60 = load ptr, ptr %7, align 8, !tbaa !30
  call void (ptr, i32, ptr, ...) @av_log(ptr noundef %59, i32 noundef 16, ptr noundef @.str.56, ptr noundef %60)
  store i32 -1094995529, ptr %14, align 4, !tbaa !12
  store i32 5, ptr %18, align 4
  br label %83

61:                                               ; preds = %52
  %62 = load ptr, ptr %5, align 8, !tbaa !10
  %63 = getelementptr inbounds nuw %struct.AVTextFormatContext, ptr %62, i32 0, i32 19
  %64 = load ptr, ptr %63, align 8, !tbaa !61
  call void (ptr, ptr, ...) @av_bprintf(ptr noundef %11, ptr noundef @.str.57, ptr noundef %64)
  br label %65

65:                                               ; preds = %52, %61
  br label %66

66:                                               ; preds = %65, %49
  %67 = load i32, ptr %16, align 4, !tbaa !12
  %68 = icmp ne i32 %67, 0
  br i1 %68, label %69, label %74

69:                                               ; preds = %66
  %70 = load ptr, ptr %5, align 8, !tbaa !10
  %71 = getelementptr inbounds nuw %struct.AVTextFormatContext, ptr %70, i32 0, i32 18
  %72 = load i32, ptr %71, align 8, !tbaa !94
  %73 = icmp eq i32 %72, 2
  br i1 %73, label %74, label %82

74:                                               ; preds = %69, %66
  %75 = load ptr, ptr %17, align 8, !tbaa !30
  %76 = load ptr, ptr %8, align 8, !tbaa !30
  %77 = load ptr, ptr %17, align 8, !tbaa !30
  %78 = ptrtoint ptr %76 to i64
  %79 = ptrtoint ptr %77 to i64
  %80 = sub i64 %78, %79
  %81 = trunc i64 %80 to i32
  call void @av_bprint_append_data(ptr noundef %11, ptr noundef %75, i32 noundef %81)
  br label %82

82:                                               ; preds = %74, %69
  store i32 0, ptr %18, align 4
  br label %83

83:                                               ; preds = %58, %82
  call void @llvm.lifetime.end.p0(i64 8, ptr %17) #10
  call void @llvm.lifetime.end.p0(i64 4, ptr %16) #10
  call void @llvm.lifetime.end.p0(i64 4, ptr %15) #10
  %84 = load i32, ptr %18, align 4
  switch i32 %84, label %107 [
    i32 0, label %85
    i32 5, label %102
  ]

85:                                               ; preds = %83
  br label %26, !llvm.loop !95

86:                                               ; preds = %26
  %87 = load i32, ptr %13, align 4, !tbaa !12
  %88 = icmp ne i32 %87, 0
  br i1 %88, label %89, label %101

89:                                               ; preds = %86
  %90 = load ptr, ptr %5, align 8, !tbaa !10
  %91 = getelementptr inbounds nuw %struct.AVTextFormatContext, ptr %90, i32 0, i32 18
  %92 = load i32, ptr %91, align 8, !tbaa !94
  %93 = icmp eq i32 %92, 1
  br i1 %93, label %94, label %101

94:                                               ; preds = %89
  %95 = load ptr, ptr %5, align 8, !tbaa !10
  %96 = load i32, ptr %13, align 4, !tbaa !12
  %97 = load ptr, ptr %7, align 8, !tbaa !30
  %98 = load ptr, ptr %5, align 8, !tbaa !10
  %99 = getelementptr inbounds nuw %struct.AVTextFormatContext, ptr %98, i32 0, i32 19
  %100 = load ptr, ptr %99, align 8, !tbaa !61
  call void (ptr, i32, ptr, ...) @av_log(ptr noundef %95, i32 noundef 24, ptr noundef @.str.58, i32 noundef %96, ptr noundef %97, ptr noundef %100)
  br label %101

101:                                              ; preds = %94, %89, %86
  br label %102

102:                                              ; preds = %101, %83
  %103 = load ptr, ptr %6, align 8, !tbaa !92
  %104 = call i32 @av_bprint_finalize(ptr noundef %11, ptr noundef %103)
  %105 = call i32 @av_bprint_finalize(ptr noundef %12, ptr noundef null)
  %106 = load i32, ptr %14, align 4, !tbaa !12
  store i32 %106, ptr %4, align 4
  store i32 1, ptr %18, align 4
  br label %107

107:                                              ; preds = %102, %83
  call void @llvm.lifetime.end.p0(i64 4, ptr %14) #10
  call void @llvm.lifetime.end.p0(i64 4, ptr %13) #10
  call void @llvm.lifetime.end.p0(i64 1024, ptr %12) #10
  call void @llvm.lifetime.end.p0(i64 1024, ptr %11) #10
  call void @llvm.lifetime.end.p0(i64 8, ptr %10) #10
  call void @llvm.lifetime.end.p0(i64 8, ptr %9) #10
  call void @llvm.lifetime.end.p0(i64 8, ptr %8) #10
  %108 = load i32, ptr %4, align 4
  ret i32 %108
}

; Function Attrs: nounwind uwtable
define i32 @avtext_print_string(ptr noundef %0, ptr noundef %1, ptr noundef %2, i32 noundef %3) #0 {
  %5 = alloca i32, align 4
  %6 = alloca ptr, align 8
  %7 = alloca ptr, align 8
  %8 = alloca ptr, align 8
  %9 = alloca i32, align 4
  %10 = alloca ptr, align 8
  %11 = alloca i32, align 4
  %12 = alloca i32, align 4
  %13 = alloca ptr, align 8
  %14 = alloca ptr, align 8
  store ptr %0, ptr %6, align 8, !tbaa !10
  store ptr %1, ptr %7, align 8, !tbaa !30
  store ptr %2, ptr %8, align 8, !tbaa !30
  store i32 %3, ptr %9, align 4, !tbaa !12
  call void @llvm.lifetime.start.p0(i64 8, ptr %10) #10
  call void @llvm.lifetime.start.p0(i64 4, ptr %11) #10
  store i32 0, ptr %11, align 4, !tbaa !12
  br label %15

15:                                               ; preds = %4
  %16 = load ptr, ptr %7, align 8, !tbaa !30
  %17 = icmp ne ptr %16, null
  br i1 %17, label %18, label %31

18:                                               ; preds = %15
  %19 = load ptr, ptr %8, align 8, !tbaa !30
  %20 = icmp ne ptr %19, null
  br i1 %20, label %21, label %31

21:                                               ; preds = %18
  %22 = load ptr, ptr %6, align 8, !tbaa !10
  %23 = getelementptr inbounds nuw %struct.AVTextFormatContext, ptr %22, i32 0, i32 7
  %24 = load i32, ptr %23, align 4, !tbaa !46
  %25 = icmp sge i32 %24, 0
  br i1 %25, label %26, label %31

26:                                               ; preds = %21
  %27 = load ptr, ptr %6, align 8, !tbaa !10
  %28 = getelementptr inbounds nuw %struct.AVTextFormatContext, ptr %27, i32 0, i32 7
  %29 = load i32, ptr %28, align 4, !tbaa !46
  %30 = icmp slt i32 %29, 12
  br i1 %30, label %32, label %31

31:                                               ; preds = %26, %21, %18, %15
  call void (ptr, i32, ptr, ...) @av_log(ptr noundef null, i32 noundef 0, ptr noundef @.str, ptr noundef @.str.17, ptr noundef @.str.2, i32 noundef 455)
  call void @abort() #11
  unreachable

32:                                               ; preds = %26
  br label %33

33:                                               ; preds = %32
  br label %34

34:                                               ; preds = %33
  %35 = load ptr, ptr %6, align 8, !tbaa !10
  %36 = getelementptr inbounds nuw %struct.AVTextFormatContext, ptr %35, i32 0, i32 10
  %37 = load ptr, ptr %6, align 8, !tbaa !10
  %38 = getelementptr inbounds nuw %struct.AVTextFormatContext, ptr %37, i32 0, i32 7
  %39 = load i32, ptr %38, align 4, !tbaa !46
  %40 = sext i32 %39 to i64
  %41 = getelementptr inbounds [12 x ptr], ptr %36, i64 0, i64 %40
  %42 = load ptr, ptr %41, align 8, !tbaa !31
  store ptr %42, ptr %10, align 8, !tbaa !31
  %43 = load ptr, ptr %6, align 8, !tbaa !10
  %44 = getelementptr inbounds nuw %struct.AVTextFormatContext, ptr %43, i32 0, i32 12
  %45 = load i32, ptr %44, align 8, !tbaa !45
  %46 = icmp eq i32 %45, 0
  br i1 %46, label %47, label %48

47:                                               ; preds = %34
  store i32 0, ptr %5, align 4
  store i32 1, ptr %12, align 4
  br label %139

48:                                               ; preds = %34
  %49 = load ptr, ptr %6, align 8, !tbaa !10
  %50 = getelementptr inbounds nuw %struct.AVTextFormatContext, ptr %49, i32 0, i32 12
  %51 = load i32, ptr %50, align 8, !tbaa !45
  %52 = icmp eq i32 %51, -1
  br i1 %52, label %53, label %66

53:                                               ; preds = %48
  %54 = load i32, ptr %9, align 4, !tbaa !12
  %55 = and i32 %54, 1
  %56 = icmp ne i32 %55, 0
  br i1 %56, label %57, label %66

57:                                               ; preds = %53
  %58 = load ptr, ptr %6, align 8, !tbaa !10
  %59 = getelementptr inbounds nuw %struct.AVTextFormatContext, ptr %58, i32 0, i32 1
  %60 = load ptr, ptr %59, align 8, !tbaa !14
  %61 = getelementptr inbounds nuw %struct.AVTextFormatter, ptr %60, i32 0, i32 9
  %62 = load i32, ptr %61, align 8, !tbaa !77
  %63 = and i32 %62, 1
  %64 = icmp ne i32 %63, 0
  br i1 %64, label %66, label %65

65:                                               ; preds = %57
  store i32 0, ptr %5, align 4
  store i32 1, ptr %12, align 4
  br label %139

66:                                               ; preds = %57, %53, %48
  %67 = load ptr, ptr %10, align 8, !tbaa !31
  %68 = getelementptr inbounds nuw %struct.AVTextFormatSection, ptr %67, i32 0, i32 8
  %69 = load i32, ptr %68, align 8, !tbaa !78
  %70 = icmp ne i32 %69, 0
  br i1 %70, label %78, label %71

71:                                               ; preds = %66
  %72 = load ptr, ptr %10, align 8, !tbaa !31
  %73 = getelementptr inbounds nuw %struct.AVTextFormatSection, ptr %72, i32 0, i32 6
  %74 = load ptr, ptr %73, align 8, !tbaa !79
  %75 = load ptr, ptr %7, align 8, !tbaa !30
  %76 = call ptr @av_dict_get(ptr noundef %74, ptr noundef %75, ptr noundef null, i32 noundef 0)
  %77 = icmp ne ptr %76, null
  br i1 %77, label %78, label %137

78:                                               ; preds = %71, %66
  %79 = load i32, ptr %9, align 4, !tbaa !12
  %80 = and i32 %79, 2
  %81 = icmp ne i32 %80, 0
  br i1 %81, label %82, label %118

82:                                               ; preds = %78
  call void @llvm.lifetime.start.p0(i64 8, ptr %13) #10
  store ptr null, ptr %13, align 8, !tbaa !30
  call void @llvm.lifetime.start.p0(i64 8, ptr %14) #10
  store ptr null, ptr %14, align 8, !tbaa !30
  %83 = load ptr, ptr %6, align 8, !tbaa !10
  %84 = load ptr, ptr %7, align 8, !tbaa !30
  %85 = call i32 @validate_string(ptr noundef %83, ptr noundef %13, ptr noundef %84)
  store i32 %85, ptr %11, align 4, !tbaa !12
  %86 = load i32, ptr %11, align 4, !tbaa !12
  %87 = icmp slt i32 %86, 0
  br i1 %87, label %88, label %89

88:                                               ; preds = %82
  br label %105

89:                                               ; preds = %82
  %90 = load ptr, ptr %6, align 8, !tbaa !10
  %91 = load ptr, ptr %8, align 8, !tbaa !30
  %92 = call i32 @validate_string(ptr noundef %90, ptr noundef %14, ptr noundef %91)
  store i32 %92, ptr %11, align 4, !tbaa !12
  %93 = load i32, ptr %11, align 4, !tbaa !12
  %94 = icmp slt i32 %93, 0
  br i1 %94, label %95, label %96

95:                                               ; preds = %89
  br label %105

96:                                               ; preds = %89
  %97 = load ptr, ptr %6, align 8, !tbaa !10
  %98 = getelementptr inbounds nuw %struct.AVTextFormatContext, ptr %97, i32 0, i32 1
  %99 = load ptr, ptr %98, align 8, !tbaa !14
  %100 = getelementptr inbounds nuw %struct.AVTextFormatter, ptr %99, i32 0, i32 8
  %101 = load ptr, ptr %100, align 8, !tbaa !83
  %102 = load ptr, ptr %6, align 8, !tbaa !10
  %103 = load ptr, ptr %13, align 8, !tbaa !30
  %104 = load ptr, ptr %14, align 8, !tbaa !30
  call void %101(ptr noundef %102, ptr noundef %103, ptr noundef %104)
  br label %105

105:                                              ; preds = %96, %95, %88
  %106 = load i32, ptr %11, align 4, !tbaa !12
  %107 = icmp slt i32 %106, 0
  br i1 %107, label %108, label %115

108:                                              ; preds = %105
  %109 = load ptr, ptr %6, align 8, !tbaa !10
  %110 = load ptr, ptr %7, align 8, !tbaa !30
  %111 = load ptr, ptr %8, align 8, !tbaa !30
  %112 = load ptr, ptr %10, align 8, !tbaa !31
  %113 = getelementptr inbounds nuw %struct.AVTextFormatSection, ptr %112, i32 0, i32 5
  %114 = load ptr, ptr %113, align 8, !tbaa !84
  call void (ptr, i32, ptr, ...) @av_log(ptr noundef %109, i32 noundef 16, ptr noundef @.str.18, ptr noundef %110, ptr noundef %111, ptr noundef %114)
  br label %115

115:                                              ; preds = %108, %105
  %116 = load ptr, ptr %13, align 8, !tbaa !30
  call void @av_free(ptr noundef %116)
  %117 = load ptr, ptr %14, align 8, !tbaa !30
  call void @av_free(ptr noundef %117)
  call void @llvm.lifetime.end.p0(i64 8, ptr %14) #10
  call void @llvm.lifetime.end.p0(i64 8, ptr %13) #10
  br label %127

118:                                              ; preds = %78
  %119 = load ptr, ptr %6, align 8, !tbaa !10
  %120 = getelementptr inbounds nuw %struct.AVTextFormatContext, ptr %119, i32 0, i32 1
  %121 = load ptr, ptr %120, align 8, !tbaa !14
  %122 = getelementptr inbounds nuw %struct.AVTextFormatter, ptr %121, i32 0, i32 8
  %123 = load ptr, ptr %122, align 8, !tbaa !83
  %124 = load ptr, ptr %6, align 8, !tbaa !10
  %125 = load ptr, ptr %7, align 8, !tbaa !30
  %126 = load ptr, ptr %8, align 8, !tbaa !30
  call void %123(ptr noundef %124, ptr noundef %125, ptr noundef %126)
  br label %127

127:                                              ; preds = %118, %115
  %128 = load ptr, ptr %6, align 8, !tbaa !10
  %129 = getelementptr inbounds nuw %struct.AVTextFormatContext, ptr %128, i32 0, i32 8
  %130 = load ptr, ptr %6, align 8, !tbaa !10
  %131 = getelementptr inbounds nuw %struct.AVTextFormatContext, ptr %130, i32 0, i32 7
  %132 = load i32, ptr %131, align 4, !tbaa !46
  %133 = sext i32 %132 to i64
  %134 = getelementptr inbounds [12 x i32], ptr %129, i64 0, i64 %133
  %135 = load i32, ptr %134, align 4, !tbaa !12
  %136 = add i32 %135, 1
  store i32 %136, ptr %134, align 4, !tbaa !12
  br label %137

137:                                              ; preds = %127, %71
  %138 = load i32, ptr %11, align 4, !tbaa !12
  store i32 %138, ptr %5, align 4
  store i32 1, ptr %12, align 4
  br label %139

139:                                              ; preds = %137, %65, %47
  call void @llvm.lifetime.end.p0(i64 4, ptr %11) #10
  call void @llvm.lifetime.end.p0(i64 8, ptr %10) #10
  %140 = load i32, ptr %5, align 4
  ret i32 %140
}

; Function Attrs: nounwind uwtable
define void @avtext_print_rational(ptr noundef %0, ptr noundef %1, i64 %2, i8 noundef signext %3) #0 {
  %5 = alloca %struct.AVRational, align 4
  %6 = alloca ptr, align 8
  %7 = alloca ptr, align 8
  %8 = alloca i8, align 1
  %9 = alloca [44 x i8], align 16
  store i64 %2, ptr %5, align 4
  store ptr %0, ptr %6, align 8, !tbaa !10
  store ptr %1, ptr %7, align 8, !tbaa !30
  store i8 %3, ptr %8, align 1, !tbaa !62
  call void @llvm.lifetime.start.p0(i64 44, ptr %9) #10
  %10 = getelementptr inbounds [44 x i8], ptr %9, i64 0, i64 0
  %11 = getelementptr inbounds nuw %struct.AVRational, ptr %5, i32 0, i32 0
  %12 = load i32, ptr %11, align 4, !tbaa !96
  %13 = load i8, ptr %8, align 1, !tbaa !62
  %14 = sext i8 %13 to i32
  %15 = getelementptr inbounds nuw %struct.AVRational, ptr %5, i32 0, i32 1
  %16 = load i32, ptr %15, align 4, !tbaa !98
  %17 = call i32 (ptr, i64, ptr, ...) @snprintf(ptr noundef %10, i64 noundef 44, ptr noundef @.str.19, i32 noundef %12, i32 noundef %14, i32 noundef %16) #10
  %18 = load ptr, ptr %6, align 8, !tbaa !10
  %19 = load ptr, ptr %7, align 8, !tbaa !30
  %20 = getelementptr inbounds [44 x i8], ptr %9, i64 0, i64 0
  %21 = call i32 @avtext_print_string(ptr noundef %18, ptr noundef %19, ptr noundef %20, i32 noundef 0)
  call void @llvm.lifetime.end.p0(i64 44, ptr %9) #10
  ret void
}